; Function Attrs: nounwind uwtable
define noalias noundef ptr @Sle_ManCollectCutFanins(ptr noundef readonly captures(none) %0, ptr noundef readonly captures(none) %1, ptr noundef readonly captures(none) %2) local_unnamed_addr #0 {
  %4 = getelementptr i8, ptr %0, i64 24
  %.val16 = load i32, ptr %4, align 8, !tbaa !44
  %5 = ashr i32 %.val16, 5
  %6 = and i32 %.val16, 31
  %7 = icmp ne i32 %6, 0
  %8 = zext i1 %7 to i32
  %9 = add nsw i32 %5, %8
  %10 = tail call noalias dereferenceable_or_null(16) ptr @malloc(i64 noundef 16) #24
  %11 = shl nsw i32 %9, 5
  store i32 %11, ptr %10, align 8, !tbaa !55
  %.not.i.i = icmp eq i32 %9, 0
  br i1 %.not.i.i, label %Vec_BitStart.exit, label %12

12:                                               ; preds = %3
  %13 = sext i32 %9 to i64
  %14 = shl nsw i64 %13, 2
  %15 = tail call noalias ptr @malloc(i64 noundef %14) #24
  br label %Vec_BitStart.exit

Vec_BitStart.exit:                                ; preds = %3, %12
  %.pre-phi8.i = phi i64 [ %14, %12 ], [ 0, %3 ]
  %16 = phi ptr [ %15, %12 ], [ null, %3 ]
  %17 = getelementptr inbounds nuw i8, ptr %10, i64 4
  %18 = getelementptr inbounds nuw i8, ptr %10, i64 8
  store ptr %16, ptr %18, align 8, !tbaa !57
  store i32 %11, ptr %17, align 4, !tbaa !58
  tail call void @llvm.memset.p0.i64(ptr align 4 %16, i8 0, i64 %.pre-phi8.i, i1 false)
  %19 = tail call noalias dereferenceable_or_null(16) ptr @malloc(i64 noundef 16) #24
  %20 = add i32 %.val16, -1
  %or.cond.i.i = icmp ult i32 %20, 7
  %spec.store.select.i.i = select i1 %or.cond.i.i, i32 8, i32 %.val16
  store i32 %spec.store.select.i.i, ptr %19, align 8, !tbaa !64
  %.not.i.i19 = icmp eq i32 %spec.store.select.i.i, 0
  br i1 %.not.i.i19, label %Vec_WecStart.exit, label %21

21:                                               ; preds = %Vec_BitStart.exit
  %22 = sext i32 %spec.store.select.i.i to i64
  %23 = tail call noalias ptr @calloc(i64 noundef %22, i64 noundef 16) #25
  br label %Vec_WecStart.exit

Vec_WecStart.exit:                                ; preds = %Vec_BitStart.exit, %21
  %24 = phi ptr [ %23, %21 ], [ null, %Vec_BitStart.exit ]
  %25 = getelementptr inbounds nuw i8, ptr %19, i64 4
  %26 = getelementptr inbounds nuw i8, ptr %19, i64 8
  store ptr %24, ptr %26, align 8, !tbaa !66
  store i32 %.val16, ptr %25, align 4, !tbaa !67
  %27 = icmp sgt i32 %.val16, 0
  br i1 %27, label %.lr.ph, label %._crit_edge

.lr.ph:                                           ; preds = %Vec_WecStart.exit
  %28 = getelementptr i8, ptr %0, i64 32
  br label %29

29:                                               ; preds = %.lr.ph, %38
  %30 = phi i32 [ %.val16, %.lr.ph ], [ %39, %38 ]
  %indvars.iv = phi i64 [ 0, %.lr.ph ], [ %indvars.iv.next, %38 ]
  %.val = load ptr, ptr %28, align 8, !tbaa !3
  %31 = getelementptr inbounds nuw %struct.Gia_Obj_t_, ptr %.val, i64 %indvars.iv
  %.val17 = load i64, ptr %31, align 4
  %32 = and i64 %.val17, 2147483648
  %.not.i = icmp ne i64 %32, 0
  %33 = and i64 %.val17, 536870911
  %34 = icmp eq i64 %33, 536870911
  %narrow.i.not = or i1 %.not.i, %34
  br i1 %narrow.i.not, label %38, label %35

35:                                               ; preds = %29
  %36 = getelementptr inbounds nuw %struct.Vec_Int_t_, ptr %24, i64 %indvars.iv
  %37 = trunc nuw nsw i64 %indvars.iv to i32
  tail call void @Sle_ManCollectCutFaninsOne(ptr nonnull poison, i32 noundef %37, ptr noundef %1, ptr noundef %2, ptr noundef %36, ptr noundef nonnull %10)
  %.pre = load i32, ptr %4, align 8, !tbaa !44
  br label %38

38:                                               ; preds = %35, %29
  %39 = phi i32 [ %.pre, %35 ], [ %30, %29 ]
  %indvars.iv.next = add nuw nsw i64 %indvars.iv, 1
  %40 = sext i32 %39 to i64
  %41 = icmp slt i64 %indvars.iv.next, %40
  br i1 %41, label %29, label %._crit_edge.loopexit, !llvm.loop !68

._crit_edge.loopexit:                             ; preds = %38
  %.pre24 = load ptr, ptr %18, align 8, !tbaa !57
  br label %._crit_edge

._crit_edge:                                      ; preds = %._crit_edge.loopexit, %Vec_WecStart.exit
  %42 = phi ptr [ %.pre24, %._crit_edge.loopexit ], [ %16, %Vec_WecStart.exit ]
  %.not.i20 = icmp eq ptr %42, null
  br i1 %.not.i20, label %Vec_BitFree.exit, label %43

43:                                               ; preds = %._crit_edge
  tail call void @free(ptr noundef nonnull %42) #22
  br label %Vec_BitFree.exit

Vec_BitFree.exit:                                 ; preds = %._crit_edge, %43
  tail call void @free(ptr noundef nonnull %10) #22
  ret ptr %19
}